; Function Attrs: nounwind uwtable
define void @png_set_sig_bytes(ptr noalias noundef %0, i32 noundef %1) local_unnamed_addr #0 {
  %3 = icmp eq ptr %0, null
  br i1 %3, label %10, label %4

4:                                                ; preds = %2
  %5 = icmp sgt i32 %1, 8
  br i1 %5, label %6, label %7

6:                                                ; preds = %4
  tail call void @png_error(ptr noundef nonnull %0, ptr noundef nonnull @.str) #27
  unreachable

7:                                                ; preds = %4
  %spec.select = tail call i32 @llvm.smax.i32(i32 %1, i32 0)
  %8 = trunc nuw nsw i32 %spec.select to i8
  %9 = getelementptr inbounds i8, ptr %0, i64 621
  store i8 %8, ptr %9, align 1
  br label %10

10:                                               ; preds = %2, %7
  ret void
}